target datalayout = "e-m:e-p270:32:32-p271:32:32-p272:64:64-i64:64-i128:128-f80:128-n8:16:32:64-S128"
target triple = "x86_64-pc-linux-gnu"

%struct.formnode = type { i16, i16, i16, i32, i32, i32, i32, i16, i16, i16, i32, ptr, ptr, ptr, ptr, ptr, ptr, ptr, ptr, ptr, ptr, ptr }
%struct.fieldnode = type { i16, i16, i16, i16, i16, i32, i32, i32, i32, i16, i16, i16, i16, i32, i32, i32, i32, ptr, ptr, ptr, ptr, ptr, ptr, ptr, ptr }

@.str = private unnamed_addr constant [2 x i8] c" \00", align 1

; Function Attrs: nounwind uwtable
define internal ptr @After_Last_Whitespace_Character(ptr noundef %0, i32 noundef %1) #0 {
  %3 = alloca ptr, align 8
  %4 = alloca i32, align 4
  %5 = alloca ptr, align 8
  store ptr %0, ptr %3, align 8, !tbaa !55
  store i32 %1, ptr %4, align 4, !tbaa !35
  call void @llvm.lifetime.start.p0(i64 8, ptr %5) #9
  %6 = load ptr, ptr %3, align 8, !tbaa !55
  %7 = load i32, ptr %4, align 4, !tbaa !35
  %8 = sext i32 %7 to i64
  %9 = getelementptr inbounds i8, ptr %6, i64 %8
  store ptr %9, ptr %5, align 8, !tbaa !55
  br label %10

10:                                               ; preds = %23, %2
  %11 = load ptr, ptr %5, align 8, !tbaa !55
  %12 = load ptr, ptr %3, align 8, !tbaa !55
  %13 = icmp ugt ptr %11, %12
  br i1 %13, label %14, label %21

14:                                               ; preds = %10
  %15 = load ptr, ptr %5, align 8, !tbaa !55
  %16 = getelementptr inbounds i8, ptr %15, i64 -1
  %17 = load i8, ptr %16, align 1, !tbaa !65
  %18 = sext i8 %17 to i32
  %19 = icmp eq i32 %18, 32
  %20 = xor i1 %19, true
  br label %21

21:                                               ; preds = %14, %10
  %22 = phi i1 [ false, %10 ], [ %20, %14 ]
  br i1 %22, label %23, label %26

23:                                               ; preds = %21
  %24 = load ptr, ptr %5, align 8, !tbaa !55
  %25 = getelementptr inbounds i8, ptr %24, i32 -1
  store ptr %25, ptr %5, align 8, !tbaa !55
  br label %10, !llvm.loop !130

26:                                               ; preds = %21
  %27 = load ptr, ptr %5, align 8, !tbaa !55
  call void @llvm.lifetime.end.p0(i64 8, ptr %5) #9
  ret ptr %27
}

; Function Attrs: nounwind uwtable
define internal ptr @Get_Start_Of_Data(ptr noundef %0, i32 noundef %1) #0 {
  %3 = alloca ptr, align 8
  %4 = alloca i32, align 4
  %5 = alloca ptr, align 8
  %6 = alloca ptr, align 8
  store ptr %0, ptr %3, align 8, !tbaa !55
  store i32 %1, ptr %4, align 4, !tbaa !35
  call void @llvm.lifetime.start.p0(i64 8, ptr %5) #9
  %7 = load ptr, ptr %3, align 8, !tbaa !55
  store ptr %7, ptr %5, align 8, !tbaa !55
  call void @llvm.lifetime.start.p0(i64 8, ptr %6) #9
  %8 = load ptr, ptr %3, align 8, !tbaa !55
  %9 = load i32, ptr %4, align 4, !tbaa !35
  %10 = sext i32 %9 to i64
  %11 = getelementptr inbounds i8, ptr %8, i64 %10
  store ptr %11, ptr %6, align 8, !tbaa !55
  br label %12

12:                                               ; preds = %23, %2
  %13 = load ptr, ptr %5, align 8, !tbaa !55
  %14 = load ptr, ptr %6, align 8, !tbaa !55
  %15 = icmp ult ptr %13, %14
  br i1 %15, label %16, label %21

16:                                               ; preds = %12
  %17 = load ptr, ptr %5, align 8, !tbaa !55
  %18 = load i8, ptr %17, align 1, !tbaa !65
  %19 = sext i8 %18 to i32
  %20 = icmp eq i32 %19, 32
  br label %21

21:                                               ; preds = %16, %12
  %22 = phi i1 [ false, %12 ], [ %20, %16 ]
  br i1 %22, label %23, label %26

23:                                               ; preds = %21
  %24 = load ptr, ptr %5, align 8, !tbaa !55
  %25 = getelementptr inbounds nuw i8, ptr %24, i32 1
  store ptr %25, ptr %5, align 8, !tbaa !55
  br label %12, !llvm.loop !115

26:                                               ; preds = %21
  %27 = load ptr, ptr %5, align 8, !tbaa !55
  %28 = load ptr, ptr %6, align 8, !tbaa !55
  %29 = icmp eq ptr %27, %28
  br i1 %29, label %30, label %32

30:                                               ; preds = %26
  %31 = load ptr, ptr %3, align 8, !tbaa !55
  br label %34

32:                                               ; preds = %26
  %33 = load ptr, ptr %5, align 8, !tbaa !55
  br label %34

34:                                               ; preds = %32, %30
  %35 = phi ptr [ %31, %30 ], [ %33, %32 ]
  call void @llvm.lifetime.end.p0(i64 8, ptr %6) #9
  call void @llvm.lifetime.end.p0(i64 8, ptr %5) #9
  ret ptr %35
}

; Function Attrs: nounwind uwtable
define internal ptr @After_End_Of_Data(ptr noundef %0, i32 noundef %1) #0 {
  %3 = alloca ptr, align 8
  %4 = alloca i32, align 4
  %5 = alloca ptr, align 8
  store ptr %0, ptr %3, align 8, !tbaa !55
  store i32 %1, ptr %4, align 4, !tbaa !35
  call void @llvm.lifetime.start.p0(i64 8, ptr %5) #9
  %6 = load ptr, ptr %3, align 8, !tbaa !55
  %7 = load i32, ptr %4, align 4, !tbaa !35
  %8 = sext i32 %7 to i64
  %9 = getelementptr inbounds i8, ptr %6, i64 %8
  store ptr %9, ptr %5, align 8, !tbaa !55
  br label %10

10:                                               ; preds = %22, %2
  %11 = load ptr, ptr %5, align 8, !tbaa !55
  %12 = load ptr, ptr %3, align 8, !tbaa !55
  %13 = icmp ugt ptr %11, %12
  br i1 %13, label %14, label %20

14:                                               ; preds = %10
  %15 = load ptr, ptr %5, align 8, !tbaa !55
  %16 = getelementptr inbounds i8, ptr %15, i64 -1
  %17 = load i8, ptr %16, align 1, !tbaa !65
  %18 = sext i8 %17 to i32
  %19 = icmp eq i32 %18, 32
  br label %20

20:                                               ; preds = %14, %10
  %21 = phi i1 [ false, %10 ], [ %19, %14 ]
  br i1 %21, label %22, label %25

22:                                               ; preds = %20
  %23 = load ptr, ptr %5, align 8, !tbaa !55
  %24 = getelementptr inbounds i8, ptr %23, i32 -1
  store ptr %24, ptr %5, align 8, !tbaa !55
  br label %10, !llvm.loop !116

25:                                               ; preds = %20
  %26 = load ptr, ptr %5, align 8, !tbaa !55
  call void @llvm.lifetime.end.p0(i64 8, ptr %5) #9
  ret ptr %26
}

; Function Attrs: nounwind uwtable
define internal i32 @Insert_String(ptr noundef %0, i32 noundef %1, ptr noundef %2, i32 noundef %3) #0 {
  %5 = alloca i32, align 4
  %6 = alloca ptr, align 8
  %7 = alloca i32, align 4
  %8 = alloca ptr, align 8
  %9 = alloca i32, align 4
  %10 = alloca ptr, align 8
  %11 = alloca ptr, align 8
  %12 = alloca i32, align 4
  %13 = alloca i32, align 4
  %14 = alloca i32, align 4
  %15 = alloca ptr, align 8
  %16 = alloca i32, align 4
  %17 = alloca ptr, align 8
  %18 = alloca i32, align 4
  store ptr %0, ptr %6, align 8, !tbaa !4
  store i32 %1, ptr %7, align 4, !tbaa !35
  store ptr %2, ptr %8, align 8, !tbaa !55
  store i32 %3, ptr %9, align 4, !tbaa !35
  call void @llvm.lifetime.start.p0(i64 8, ptr %10) #9
  %19 = load ptr, ptr %6, align 8, !tbaa !4
  %20 = getelementptr inbounds nuw %struct.formnode, ptr %19, i32 0, i32 15
  %21 = load ptr, ptr %20, align 8, !tbaa !16
  store ptr %21, ptr %10, align 8, !tbaa !17
  call void @llvm.lifetime.start.p0(i64 8, ptr %11) #9
  %22 = load ptr, ptr %10, align 8, !tbaa !17
  %23 = getelementptr inbounds nuw %struct.fieldnode, ptr %22, i32 0, i32 23
  %24 = load ptr, ptr %23, align 8, !tbaa !54
  %25 = load ptr, ptr %10, align 8, !tbaa !17
  %26 = getelementptr inbounds nuw %struct.fieldnode, ptr %25, i32 0, i32 5
  %27 = load i32, ptr %26, align 4, !tbaa !27
  %28 = load ptr, ptr %10, align 8, !tbaa !17
  %29 = getelementptr inbounds nuw %struct.fieldnode, ptr %28, i32 0, i32 6
  %30 = load i32, ptr %29, align 8, !tbaa !29
  %31 = mul nsw i32 %27, %30
  %32 = add nsw i32 1, %31
  %33 = mul nsw i32 0, %32
  %34 = sext i32 %33 to i64
  %35 = getelementptr inbounds i8, ptr %24, i64 %34
  %36 = load i32, ptr %7, align 4, !tbaa !35
  %37 = load ptr, ptr %10, align 8, !tbaa !17
  %38 = getelementptr inbounds nuw %struct.fieldnode, ptr %37, i32 0, i32 6
  %39 = load i32, ptr %38, align 8, !tbaa !29
  %40 = mul nsw i32 %36, %39
  %41 = sext i32 %40 to i64
  %42 = getelementptr inbounds i8, ptr %35, i64 %41
  store ptr %42, ptr %11, align 8, !tbaa !55
  call void @llvm.lifetime.start.p0(i64 4, ptr %12) #9
  %43 = load ptr, ptr %11, align 8, !tbaa !55
  %44 = load ptr, ptr %10, align 8, !tbaa !17
  %45 = getelementptr inbounds nuw %struct.fieldnode, ptr %44, i32 0, i32 6
  %46 = load i32, ptr %45, align 8, !tbaa !29
  %47 = call ptr @After_End_Of_Data(ptr noundef %43, i32 noundef %46)
  %48 = load ptr, ptr %11, align 8, !tbaa !55
  %49 = ptrtoint ptr %47 to i64
  %50 = ptrtoint ptr %48 to i64
  %51 = sub i64 %49, %50
  %52 = trunc i64 %51 to i32
  store i32 %52, ptr %12, align 4, !tbaa !35
  call void @llvm.lifetime.start.p0(i64 4, ptr %13) #9
  %53 = load ptr, ptr %10, align 8, !tbaa !17
  %54 = getelementptr inbounds nuw %struct.fieldnode, ptr %53, i32 0, i32 6
  %55 = load i32, ptr %54, align 8, !tbaa !29
  %56 = load i32, ptr %12, align 4, !tbaa !35
  %57 = sub nsw i32 %55, %56
  store i32 %57, ptr %13, align 4, !tbaa !35
  call void @llvm.lifetime.start.p0(i64 4, ptr %14) #9
  %58 = load i32, ptr %9, align 4, !tbaa !35
  %59 = add nsw i32 %58, 1
  store i32 %59, ptr %14, align 4, !tbaa !35
  call void @llvm.lifetime.start.p0(i64 8, ptr %15) #9
  call void @llvm.lifetime.start.p0(i64 4, ptr %16) #9
  store i32 -12, ptr %16, align 4, !tbaa !35
  call void @llvm.lifetime.start.p0(i64 8, ptr %17) #9
  %60 = call noalias ptr @malloc(i64 noundef 2) #12
  store ptr %60, ptr %17, align 8, !tbaa !55
  %61 = load ptr, ptr %17, align 8, !tbaa !55
  %62 = call ptr @strcpy(ptr noundef %61, ptr noundef @.str) #9
  %63 = load i32, ptr %13, align 4, !tbaa !35
  %64 = load i32, ptr %14, align 4, !tbaa !35
  %65 = icmp sge i32 %63, %64
  br i1 %65, label %66, label %90

66:                                               ; preds = %4
  %67 = load ptr, ptr %6, align 8, !tbaa !4
  %68 = getelementptr inbounds nuw %struct.formnode, ptr %67, i32 0, i32 13
  %69 = load ptr, ptr %68, align 8, !tbaa !9
  %70 = load i32, ptr %7, align 4, !tbaa !35
  %71 = call i32 @wmove(ptr noundef %69, i32 noundef %70, i32 noundef 0)
  %72 = load ptr, ptr %6, align 8, !tbaa !4
  %73 = getelementptr inbounds nuw %struct.formnode, ptr %72, i32 0, i32 13
  %74 = load ptr, ptr %73, align 8, !tbaa !9
  %75 = load ptr, ptr %8, align 8, !tbaa !55
  %76 = load i32, ptr %9, align 4, !tbaa !35
  %77 = call i32 @winsnstr(ptr noundef %74, ptr noundef %75, i32 noundef %76)
  %78 = load ptr, ptr %6, align 8, !tbaa !4
  %79 = getelementptr inbounds nuw %struct.formnode, ptr %78, i32 0, i32 13
  %80 = load ptr, ptr %79, align 8, !tbaa !9
  %81 = load i32, ptr %7, align 4, !tbaa !35
  %82 = load i32, ptr %9, align 4, !tbaa !35
  %83 = call i32 @wmove(ptr noundef %80, i32 noundef %81, i32 noundef %82)
  %84 = load ptr, ptr %6, align 8, !tbaa !4
  %85 = getelementptr inbounds nuw %struct.formnode, ptr %84, i32 0, i32 13
  %86 = load ptr, ptr %85, align 8, !tbaa !9
  %87 = load ptr, ptr %17, align 8, !tbaa !55
  %88 = call i32 @winsnstr(ptr noundef %86, ptr noundef %87, i32 noundef 1)
  %89 = load ptr, ptr %17, align 8, !tbaa !55
  call void @free(ptr noundef %89) #9
  store i32 0, ptr %5, align 4
  store i32 1, ptr %18, align 4
  br label %216

90:                                               ; preds = %4
  %91 = load i32, ptr %7, align 4, !tbaa !35
  %92 = load ptr, ptr %10, align 8, !tbaa !17
  %93 = getelementptr inbounds nuw %struct.fieldnode, ptr %92, i32 0, i32 5
  %94 = load i32, ptr %93, align 4, !tbaa !27
  %95 = sub nsw i32 %94, 1
  %96 = icmp eq i32 %91, %95
  br i1 %96, label %97, label %131

97:                                               ; preds = %90
  %98 = load ptr, ptr %10, align 8, !tbaa !17
  %99 = getelementptr inbounds nuw %struct.fieldnode, ptr %98, i32 0, i32 0
  %100 = load i16, ptr %99, align 8, !tbaa !37
  %101 = zext i16 %100 to i32
  %102 = and i32 %101, 8
  %103 = icmp ne i32 %102, 0
  br i1 %103, label %104, label %131

104:                                              ; preds = %97
  %105 = load ptr, ptr %10, align 8, !tbaa !17
  %106 = call zeroext i1 @Field_Grown(ptr noundef %105, i32 noundef 1)
  br i1 %106, label %109, label %107

107:                                              ; preds = %104
  %108 = load ptr, ptr %17, align 8, !tbaa !55
  call void @free(ptr noundef %108) #9
  store i32 -1, ptr %5, align 4
  store i32 1, ptr %18, align 4
  br label %216

109:                                              ; preds = %104
  %110 = load ptr, ptr %10, align 8, !tbaa !17
  %111 = getelementptr inbounds nuw %struct.fieldnode, ptr %110, i32 0, i32 23
  %112 = load ptr, ptr %111, align 8, !tbaa !54
  %113 = load ptr, ptr %10, align 8, !tbaa !17
  %114 = getelementptr inbounds nuw %struct.fieldnode, ptr %113, i32 0, i32 5
  %115 = load i32, ptr %114, align 4, !tbaa !27
  %116 = load ptr, ptr %10, align 8, !tbaa !17
  %117 = getelementptr inbounds nuw %struct.fieldnode, ptr %116, i32 0, i32 6
  %118 = load i32, ptr %117, align 8, !tbaa !29
  %119 = mul nsw i32 %115, %118
  %120 = add nsw i32 1, %119
  %121 = mul nsw i32 0, %120
  %122 = sext i32 %121 to i64
  %123 = getelementptr inbounds i8, ptr %112, i64 %122
  %124 = load i32, ptr %7, align 4, !tbaa !35
  %125 = load ptr, ptr %10, align 8, !tbaa !17
  %126 = getelementptr inbounds nuw %struct.fieldnode, ptr %125, i32 0, i32 6
  %127 = load i32, ptr %126, align 8, !tbaa !29
  %128 = mul nsw i32 %124, %127
  %129 = sext i32 %128 to i64
  %130 = getelementptr inbounds i8, ptr %123, i64 %129
  store ptr %130, ptr %11, align 8, !tbaa !55
  br label %131

131:                                              ; preds = %109, %97, %90
  %132 = load i32, ptr %7, align 4, !tbaa !35
  %133 = load ptr, ptr %10, align 8, !tbaa !17
  %134 = getelementptr inbounds nuw %struct.fieldnode, ptr %133, i32 0, i32 5
  %135 = load i32, ptr %134, align 4, !tbaa !27
  %136 = sub nsw i32 %135, 1
  %137 = icmp slt i32 %132, %136
  br i1 %137, label %138, label %213

138:                                              ; preds = %131
  %139 = load ptr, ptr %11, align 8, !tbaa !55
  %140 = load ptr, ptr %11, align 8, !tbaa !55
  %141 = load ptr, ptr %10, align 8, !tbaa !17
  %142 = getelementptr inbounds nuw %struct.fieldnode, ptr %141, i32 0, i32 6
  %143 = load i32, ptr %142, align 8, !tbaa !29
  %144 = sext i32 %143 to i64
  %145 = getelementptr inbounds i8, ptr %140, i64 %144
  %146 = load i32, ptr %14, align 4, !tbaa !35
  %147 = sext i32 %146 to i64
  %148 = sub i64 0, %147
  %149 = getelementptr inbounds i8, ptr %145, i64 %148
  %150 = load i32, ptr %14, align 4, !tbaa !35
  %151 = call ptr @Get_Start_Of_Data(ptr noundef %149, i32 noundef %150)
  %152 = load ptr, ptr %11, align 8, !tbaa !55
  %153 = ptrtoint ptr %151 to i64
  %154 = ptrtoint ptr %152 to i64
  %155 = sub i64 %153, %154
  %156 = trunc i64 %155 to i32
  %157 = call ptr @After_Last_Whitespace_Character(ptr noundef %139, i32 noundef %156)
  store ptr %157, ptr %15, align 8, !tbaa !55
  %158 = load ptr, ptr %15, align 8, !tbaa !55
  %159 = load ptr, ptr %11, align 8, !tbaa !55
  %160 = ptrtoint ptr %158 to i64
  %161 = ptrtoint ptr %159 to i64
  %162 = sub i64 %160, %161
  %163 = trunc i64 %162 to i32
  store i32 %163, ptr %12, align 4, !tbaa !35
  %164 = load ptr, ptr %10, align 8, !tbaa !17
  %165 = getelementptr inbounds nuw %struct.fieldnode, ptr %164, i32 0, i32 6
  %166 = load i32, ptr %165, align 8, !tbaa !29
  %167 = load i32, ptr %12, align 4, !tbaa !35
  %168 = load i32, ptr %13, align 4, !tbaa !35
  %169 = add nsw i32 %167, %168
  %170 = sub nsw i32 %166, %169
  store i32 %170, ptr %13, align 4, !tbaa !35
  %171 = load ptr, ptr %6, align 8, !tbaa !4
  %172 = load i32, ptr %7, align 4, !tbaa !35
  %173 = add nsw i32 %172, 1
  %174 = load ptr, ptr %15, align 8, !tbaa !55
  %175 = load i32, ptr %13, align 4, !tbaa !35
  %176 = call i32 @Insert_String(ptr noundef %171, i32 noundef %173, ptr noundef %174, i32 noundef %175)
  store i32 %176, ptr %16, align 4, !tbaa !35
  %177 = icmp eq i32 %176, 0
  br i1 %177, label %178, label %212

178:                                              ; preds = %138
  %179 = load ptr, ptr %6, align 8, !tbaa !4
  %180 = getelementptr inbounds nuw %struct.formnode, ptr %179, i32 0, i32 13
  %181 = load ptr, ptr %180, align 8, !tbaa !9
  %182 = load i32, ptr %7, align 4, !tbaa !35
  %183 = load i32, ptr %12, align 4, !tbaa !35
  %184 = call i32 @wmove(ptr noundef %181, i32 noundef %182, i32 noundef %183)
  %185 = load ptr, ptr %6, align 8, !tbaa !4
  %186 = getelementptr inbounds nuw %struct.formnode, ptr %185, i32 0, i32 13
  %187 = load ptr, ptr %186, align 8, !tbaa !9
  %188 = call i32 @wclrtoeol(ptr noundef %187)
  %189 = load ptr, ptr %6, align 8, !tbaa !4
  %190 = getelementptr inbounds nuw %struct.formnode, ptr %189, i32 0, i32 13
  %191 = load ptr, ptr %190, align 8, !tbaa !9
  %192 = load i32, ptr %7, align 4, !tbaa !35
  %193 = call i32 @wmove(ptr noundef %191, i32 noundef %192, i32 noundef 0)
  %194 = load ptr, ptr %6, align 8, !tbaa !4
  %195 = getelementptr inbounds nuw %struct.formnode, ptr %194, i32 0, i32 13
  %196 = load ptr, ptr %195, align 8, !tbaa !9
  %197 = load ptr, ptr %8, align 8, !tbaa !55
  %198 = load i32, ptr %9, align 4, !tbaa !35
  %199 = call i32 @winsnstr(ptr noundef %196, ptr noundef %197, i32 noundef %198)
  %200 = load ptr, ptr %6, align 8, !tbaa !4
  %201 = getelementptr inbounds nuw %struct.formnode, ptr %200, i32 0, i32 13
  %202 = load ptr, ptr %201, align 8, !tbaa !9
  %203 = load i32, ptr %7, align 4, !tbaa !35
  %204 = load i32, ptr %9, align 4, !tbaa !35
  %205 = call i32 @wmove(ptr noundef %202, i32 noundef %203, i32 noundef %204)
  %206 = load ptr, ptr %6, align 8, !tbaa !4
  %207 = getelementptr inbounds nuw %struct.formnode, ptr %206, i32 0, i32 13
  %208 = load ptr, ptr %207, align 8, !tbaa !9
  %209 = load ptr, ptr %17, align 8, !tbaa !55
  %210 = call i32 @winsnstr(ptr noundef %208, ptr noundef %209, i32 noundef 1)
  %211 = load ptr, ptr %17, align 8, !tbaa !55
  call void @free(ptr noundef %211) #9
  store i32 0, ptr %5, align 4
  store i32 1, ptr %18, align 4
  br label %216

212:                                              ; preds = %138
  br label %213

213:                                              ; preds = %212, %131
  %214 = load ptr, ptr %17, align 8, !tbaa !55
  call void @free(ptr noundef %214) #9
  %215 = load i32, ptr %16, align 4, !tbaa !35
  store i32 %215, ptr %5, align 4
  store i32 1, ptr %18, align 4
  br label %216

216:                                              ; preds = %213, %178, %107, %66
  call void @llvm.lifetime.end.p0(i64 8, ptr %17) #9
  call void @llvm.lifetime.end.p0(i64 4, ptr %16) #9
  call void @llvm.lifetime.end.p0(i64 8, ptr %15) #9
  call void @llvm.lifetime.end.p0(i64 4, ptr %14) #9
  call void @llvm.lifetime.end.p0(i64 4, ptr %13) #9
  call void @llvm.lifetime.end.p0(i64 4, ptr %12) #9
  call void @llvm.lifetime.end.p0(i64 8, ptr %11) #9
  call void @llvm.lifetime.end.p0(i64 8, ptr %10) #9
  %217 = load i32, ptr %5, align 4
  ret i32 %217
}