; Function Attrs: nounwind uwtable
define internal fastcc range(i32 -12, 1) i32 @Insert_String(ptr noundef readonly captures(none) %0, i32 noundef range(i32 -2147483647, -2147483648) %1, ptr noundef %2, i32 noundef %3) unnamed_addr #0 {
  %5 = getelementptr inbounds nuw i8, ptr %0, i64 72
  %6 = load ptr, ptr %5, align 8, !tbaa !14
  %7 = getelementptr inbounds nuw i8, ptr %6, i64 104
  %8 = load ptr, ptr %7, align 8, !tbaa !52
  %9 = getelementptr inbounds nuw i8, ptr %6, i64 12
  %10 = getelementptr inbounds nuw i8, ptr %6, i64 16
  %11 = load i32, ptr %10, align 8, !tbaa !26
  %12 = mul nsw i32 %11, %1
  %13 = sext i32 %12 to i64
  %14 = getelementptr inbounds i8, ptr %8, i64 %13
  %15 = sext i32 %11 to i64
  %16 = getelementptr inbounds i8, ptr %14, i64 %15
  br label %17

17:                                               ; preds = %19, %4
  %.0.i = phi ptr [ %16, %4 ], [ %20, %19 ]
  %18 = icmp ugt ptr %.0.i, %14
  br i1 %18, label %19, label %After_End_Of_Data.exit

19:                                               ; preds = %17
  %20 = getelementptr inbounds i8, ptr %.0.i, i64 -1
  %21 = load i8, ptr %20, align 1, !tbaa !54
  %22 = icmp eq i8 %21, 32
  br i1 %22, label %17, label %After_End_Of_Data.exit, !llvm.loop !57

After_End_Of_Data.exit:                           ; preds = %17, %19
  %23 = ptrtoint ptr %.0.i to i64
  %24 = ptrtoint ptr %14 to i64
  %.neg = sub i64 %24, %23
  %.neg76 = trunc i64 %.neg to i32
  %25 = add i32 %11, %.neg76
  %26 = tail call noalias dereferenceable_or_null(2) ptr @malloc(i64 noundef 2) #16
  store i16 32, ptr %26, align 1
  %.not.not = icmp sgt i32 %25, %3
  br i1 %.not.not, label %27, label %33

27:                                               ; preds = %After_End_Of_Data.exit
  %28 = getelementptr inbounds nuw i8, ptr %0, i64 56
  %29 = load ptr, ptr %28, align 8, !tbaa !4
  %30 = tail call i32 @wmove(ptr noundef %29, i32 noundef %1, i32 noundef 0) #13
  %31 = load ptr, ptr %28, align 8, !tbaa !4
  %32 = tail call i32 @winsnstr(ptr noundef %31, ptr noundef %2, i32 noundef %3) #13
  br label %.thread.sink.split

33:                                               ; preds = %After_End_Of_Data.exit
  %34 = load i32, ptr %9, align 4, !tbaa !24
  %35 = add nsw i32 %34, -1
  %36 = icmp eq i32 %1, %35
  br i1 %36, label %37, label %48

37:                                               ; preds = %33
  %38 = load i16, ptr %6, align 8, !tbaa !34
  %39 = and i16 %38, 8
  %.not = icmp eq i16 %39, 0
  br i1 %.not, label %.thread, label %40

40:                                               ; preds = %37
  %41 = tail call fastcc zeroext i1 @Field_Grown(ptr noundef nonnull %6, i32 noundef 1)
  br i1 %41, label %42, label %.thread

42:                                               ; preds = %40
  %43 = load ptr, ptr %7, align 8, !tbaa !52
  %44 = load i32, ptr %10, align 8, !tbaa !26
  %45 = mul nsw i32 %44, %1
  %46 = sext i32 %45 to i64
  %47 = getelementptr inbounds i8, ptr %43, i64 %46
  %.pre = load i32, ptr %9, align 4, !tbaa !24
  %.pre81 = add nsw i32 %.pre, -1
  br label %48

48:                                               ; preds = %42, %33
  %.pre-phi = phi i32 [ %.pre81, %42 ], [ %35, %33 ]
  %49 = phi i32 [ %44, %42 ], [ %11, %33 ]
  %.071 = phi ptr [ %47, %42 ], [ %14, %33 ]
  %50 = icmp slt i32 %1, %.pre-phi
  br i1 %50, label %51, label %.thread

51:                                               ; preds = %48
  %52 = sext i32 %49 to i64
  %53 = getelementptr inbounds i8, ptr %.071, i64 %52
  %narrow = xor i32 %3, -1
  %54 = sext i32 %narrow to i64
  %55 = getelementptr inbounds i8, ptr %53, i64 %54
  %56 = sext i32 %3 to i64
  %57 = getelementptr i8, ptr %55, i64 %56
  %58 = getelementptr i8, ptr %57, i64 1
  %59 = icmp sgt i32 %3, -1
  br i1 %59, label %.lr.ph.i, label %Get_Start_Of_Data.exit

.lr.ph.i:                                         ; preds = %51, %62
  %.010.i = phi ptr [ %63, %62 ], [ %55, %51 ]
  %60 = load i8, ptr %.010.i, align 1, !tbaa !54
  %61 = icmp eq i8 %60, 32
  br i1 %61, label %62, label %Get_Start_Of_Data.exit

62:                                               ; preds = %.lr.ph.i
  %63 = getelementptr inbounds nuw i8, ptr %.010.i, i64 1
  %64 = icmp ult ptr %63, %58
  br i1 %64, label %.lr.ph.i, label %Get_Start_Of_Data.exit, !llvm.loop !56

Get_Start_Of_Data.exit:                           ; preds = %.lr.ph.i, %62, %51
  %.0.lcssa.i = phi ptr [ %55, %51 ], [ %.010.i, %.lr.ph.i ], [ %63, %62 ]
  %65 = icmp eq ptr %.0.lcssa.i, %58
  %66 = select i1 %65, ptr %55, ptr %.0.lcssa.i
  %67 = ptrtoint ptr %66 to i64
  %68 = ptrtoint ptr %.071 to i64
  %69 = sub i64 %67, %68
  %sext = shl i64 %69, 32
  %70 = ashr exact i64 %sext, 32
  %71 = getelementptr inbounds i8, ptr %.071, i64 %70
  br label %72

72:                                               ; preds = %74, %Get_Start_Of_Data.exit
  %.0.i77 = phi ptr [ %71, %Get_Start_Of_Data.exit ], [ %75, %74 ]
  %73 = icmp ugt ptr %.0.i77, %.071
  br i1 %73, label %74, label %After_Last_Whitespace_Character.exit

74:                                               ; preds = %72
  %75 = getelementptr inbounds i8, ptr %.0.i77, i64 -1
  %76 = load i8, ptr %75, align 1, !tbaa !54
  %.not.i = icmp eq i8 %76, 32
  br i1 %.not.i, label %After_Last_Whitespace_Character.exit, label %72, !llvm.loop !121

After_Last_Whitespace_Character.exit:             ; preds = %72, %74
  %77 = ptrtoint ptr %.0.i77 to i64
  %78 = sub i64 %77, %68
  %79 = trunc i64 %78 to i32
  %80 = add i32 %25, %79
  %81 = sub i32 %49, %80
  %82 = add nsw i32 %1, 1
  %83 = tail call fastcc i32 @Insert_String(ptr noundef %0, i32 noundef %82, ptr noundef %.0.i77, i32 noundef %81)
  %84 = icmp eq i32 %83, 0
  br i1 %84, label %85, label %.thread

85:                                               ; preds = %After_Last_Whitespace_Character.exit
  %86 = getelementptr inbounds nuw i8, ptr %0, i64 56
  %87 = load ptr, ptr %86, align 8, !tbaa !4
  %88 = tail call i32 @wmove(ptr noundef %87, i32 noundef %1, i32 noundef %79) #13
  %89 = load ptr, ptr %86, align 8, !tbaa !4
  %90 = tail call i32 @wclrtoeol(ptr noundef %89) #13
  %91 = load ptr, ptr %86, align 8, !tbaa !4
  %92 = tail call i32 @wmove(ptr noundef %91, i32 noundef %1, i32 noundef 0) #13
  %93 = load ptr, ptr %86, align 8, !tbaa !4
  %94 = tail call i32 @winsnstr(ptr noundef %93, ptr noundef %2, i32 noundef %3) #13
  br label %.thread.sink.split

.thread.sink.split:                               ; preds = %27, %85
  %.sink84.in = phi ptr [ %28, %27 ], [ %86, %85 ]
  %.sink84 = load ptr, ptr %.sink84.in, align 8, !tbaa !4
  %95 = tail call i32 @wmove(ptr noundef %.sink84, i32 noundef %1, i32 noundef %3) #13
  %.sink = load ptr, ptr %.sink84.in, align 8, !tbaa !4
  %96 = tail call i32 @winsnstr(ptr noundef %.sink, ptr noundef nonnull %26, i32 noundef 1) #13
  br label %.thread

.thread:                                          ; preds = %.thread.sink.split, %48, %After_Last_Whitespace_Character.exit, %37, %40
  %.0 = phi i32 [ -1, %40 ], [ %83, %After_Last_Whitespace_Character.exit ], [ -12, %48 ], [ -12, %37 ], [ 0, %.thread.sink.split ]
  tail call void @free(ptr noundef %26) #13
  ret i32 %.0
}